target datalayout = "e-m:e-p270:32:32-p271:32:32-p272:64:64-i64:64-i128:128-f80:128-n8:16:32:64-S128"
target triple = "x86_64-unknown-linux-gnu"

%"class.google::protobuf::compiler::SourceTreeDescriptorDatabase" = type { %"class.google::protobuf::DescriptorDatabase", ptr, ptr, ptr, i8, %"class.google::protobuf::compiler::SourceLocationTable", %"class.google::protobuf::compiler::SourceTreeDescriptorDatabase::ValidationErrorCollector" }
%"class.google::protobuf::DescriptorDatabase" = type { ptr }
%"class.google::protobuf::compiler::SourceLocationTable" = type { %"class.absl::lts_20230802::flat_hash_map", %"class.absl::lts_20230802::flat_hash_map.7" }
%"class.absl::lts_20230802::flat_hash_map" = type { %"class.absl::lts_20230802::container_internal::raw_hash_map" }
%"class.absl::lts_20230802::container_internal::raw_hash_map" = type { %"class.absl::lts_20230802::container_internal::raw_hash_set" }
%"class.absl::lts_20230802::container_internal::raw_hash_set" = type { %"class.absl::lts_20230802::container_internal::CompressedTuple" }
%"class.absl::lts_20230802::container_internal::CompressedTuple" = type { %"struct.absl::lts_20230802::container_internal::internal_compressed_tuple::CompressedTupleImpl" }
%"struct.absl::lts_20230802::container_internal::internal_compressed_tuple::CompressedTupleImpl" = type { %"struct.absl::lts_20230802::container_internal::internal_compressed_tuple::Storage" }
%"struct.absl::lts_20230802::container_internal::internal_compressed_tuple::Storage" = type { %"class.absl::lts_20230802::container_internal::CommonFields" }
%"class.absl::lts_20230802::container_internal::CommonFields" = type { ptr, ptr, i64, %"class.absl::lts_20230802::container_internal::CompressedTuple.0" }
%"class.absl::lts_20230802::container_internal::CompressedTuple.0" = type { %"struct.absl::lts_20230802::container_internal::internal_compressed_tuple::CompressedTupleImpl.1" }
%"struct.absl::lts_20230802::container_internal::internal_compressed_tuple::CompressedTupleImpl.1" = type { %"struct.absl::lts_20230802::container_internal::internal_compressed_tuple::Storage.2" }
%"struct.absl::lts_20230802::container_internal::internal_compressed_tuple::Storage.2" = type { i64 }
%"class.absl::lts_20230802::flat_hash_map.7" = type { %"class.absl::lts_20230802::container_internal::raw_hash_map.8" }
%"class.absl::lts_20230802::container_internal::raw_hash_map.8" = type { %"class.absl::lts_20230802::container_internal::raw_hash_set.9" }
%"class.absl::lts_20230802::container_internal::raw_hash_set.9" = type { %"class.absl::lts_20230802::container_internal::CompressedTuple.10" }
%"class.absl::lts_20230802::container_internal::CompressedTuple.10" = type { %"struct.absl::lts_20230802::container_internal::internal_compressed_tuple::CompressedTupleImpl.11" }
%"struct.absl::lts_20230802::container_internal::internal_compressed_tuple::CompressedTupleImpl.11" = type { %"struct.absl::lts_20230802::container_internal::internal_compressed_tuple::Storage" }
%"class.google::protobuf::compiler::SourceTreeDescriptorDatabase::ValidationErrorCollector" = type { %"class.google::protobuf::DescriptorPool::ErrorCollector", ptr }
%"class.google::protobuf::DescriptorPool::ErrorCollector" = type { ptr }
%"class.std::basic_string_view" = type { i64, ptr }
%"class.google::protobuf::compiler::Importer" = type { %"class.google::protobuf::compiler::SourceTreeDescriptorDatabase", %"class.google::protobuf::DescriptorPool" }
%"class.google::protobuf::DescriptorPool" = type { ptr, ptr, ptr, ptr, %"class.std::unique_ptr.35", %"class.std::unique_ptr.43", i8, i8, i8, i8, i8, i8, i8, i8, %"class.absl::lts_20230802::flat_hash_map.51", %"class.std::unique_ptr.62" }
%"class.std::unique_ptr.35" = type { %"struct.std::__uniq_ptr_data.36" }
%"struct.std::__uniq_ptr_data.36" = type { %"class.std::__uniq_ptr_impl.37" }
%"class.std::__uniq_ptr_impl.37" = type { %"class.std::tuple.38" }
%"class.std::tuple.38" = type { %"struct.std::_Tuple_impl.39" }
%"struct.std::_Tuple_impl.39" = type { %"struct.std::_Head_base.42" }
%"struct.std::_Head_base.42" = type { ptr }
%"class.std::unique_ptr.43" = type { %"struct.std::__uniq_ptr_data.44" }
%"struct.std::__uniq_ptr_data.44" = type { %"class.std::__uniq_ptr_impl.45" }
%"class.std::__uniq_ptr_impl.45" = type { %"class.std::tuple.46" }
%"class.std::tuple.46" = type { %"struct.std::_Tuple_impl.47" }
%"struct.std::_Tuple_impl.47" = type { %"struct.std::_Head_base.50" }
%"struct.std::_Head_base.50" = type { ptr }
%"class.absl::lts_20230802::flat_hash_map.51" = type { %"class.absl::lts_20230802::container_internal::raw_hash_map.52" }
%"class.absl::lts_20230802::container_internal::raw_hash_map.52" = type { %"class.absl::lts_20230802::container_internal::raw_hash_set.53" }
%"class.absl::lts_20230802::container_internal::raw_hash_set.53" = type { %"class.absl::lts_20230802::container_internal::CompressedTuple.54" }
%"class.absl::lts_20230802::container_internal::CompressedTuple.54" = type { %"struct.absl::lts_20230802::container_internal::internal_compressed_tuple::CompressedTupleImpl.55" }
%"struct.absl::lts_20230802::container_internal::internal_compressed_tuple::CompressedTupleImpl.55" = type { %"struct.absl::lts_20230802::container_internal::internal_compressed_tuple::Storage" }
%"class.std::unique_ptr.62" = type { %"struct.std::__uniq_ptr_data.63" }
%"struct.std::__uniq_ptr_data.63" = type { %"class.std::__uniq_ptr_impl.64" }
%"class.std::__uniq_ptr_impl.64" = type { %"class.std::tuple.65" }
%"class.std::tuple.65" = type { %"struct.std::_Tuple_impl.66" }
%"struct.std::_Tuple_impl.66" = type { %"struct.std::_Head_base.69" }
%"struct.std::_Head_base.69" = type { ptr }

; Function Attrs: mustprogress uwtable
define noundef ptr @_ZN6google8protobuf8compiler8Importer6ImportERKNSt7__cxx1112basic_stringIcSt11char_traitsIcESaIcEEE(ptr noundef nonnull align 8 dereferenceable(216) %this, ptr noundef nonnull align 8 dereferenceable(32) %filename) #6 align 2 {
entry:
  %this.addr = alloca ptr, align 8
  %filename.addr = alloca ptr, align 8
  %agg.tmp = alloca %"class.std::basic_string_view", align 8
  store ptr %this, ptr %this.addr, align 8
  store ptr %filename, ptr %filename.addr, align 8
  %this1 = load ptr, ptr %this.addr, align 8
  %pool_ = getelementptr inbounds %"class.google::protobuf::compiler::Importer", ptr %this1, i32 0, i32 1
  %0 = load ptr, ptr %filename.addr, align 8
  %call = call { i64, ptr } @_ZNKSt7__cxx1112basic_stringIcSt11char_traitsIcESaIcEEcvSt17basic_string_viewIcS2_EEv(ptr noundef nonnull align 8 dereferenceable(32) %0) #3
  %1 = getelementptr inbounds { i64, ptr }, ptr %agg.tmp, i32 0, i32 0
  %2 = extractvalue { i64, ptr } %call, 0
  store i64 %2, ptr %1, align 8
  %3 = getelementptr inbounds { i64, ptr }, ptr %agg.tmp, i32 0, i32 1
  %4 = extractvalue { i64, ptr } %call, 1
  store ptr %4, ptr %3, align 8
  %5 = getelementptr inbounds { i64, ptr }, ptr %agg.tmp, i32 0, i32 0
  %6 = load i64, ptr %5, align 8
  %7 = getelementptr inbounds { i64, ptr }, ptr %agg.tmp, i32 0, i32 1
  %8 = load ptr, ptr %7, align 8
  %call2 = call noundef ptr @_ZNK6google8protobuf14DescriptorPool14FindFileByNameESt17basic_string_viewIcSt11char_traitsIcEE(ptr noundef nonnull align 8 dereferenceable(96) %pool_, i64 %6, ptr %8)
  ret ptr %call2
}